target datalayout = "e-m:e-p270:32:32-p271:32:32-p272:64:64-i64:64-i128:128-f80:128-n8:16:32:64-S128"
target triple = "x86_64-pc-linux-gnu"

; Function Attrs: nounwind uwtable
define internal double @trc_smpte_st2084_inv(double noundef %0) #0 {
  %2 = alloca double, align 8
  %3 = alloca double, align 8
  %4 = alloca double, align 8
  %5 = alloca double, align 8
  %6 = alloca double, align 8
  %7 = alloca double, align 8
  %8 = alloca double, align 8
  store double %0, ptr %2, align 8, !tbaa !27
  call void @llvm.lifetime.start.p0(i64 8, ptr %3) #7
  store double 0x3FEAC00000000000, ptr %3, align 8, !tbaa !27
  call void @llvm.lifetime.start.p0(i64 8, ptr %4) #7
  store double 0x4032DA0000000000, ptr %4, align 8, !tbaa !27
  call void @llvm.lifetime.start.p0(i64 8, ptr %5) #7
  store double 1.868750e+01, ptr %5, align 8, !tbaa !27
  call void @llvm.lifetime.start.p0(i64 8, ptr %6) #7
  store double 0x4053B60000000000, ptr %6, align 8, !tbaa !27
  call void @llvm.lifetime.start.p0(i64 8, ptr %7) #7
  store double 0x3FC4640000000000, ptr %7, align 8, !tbaa !27
  call void @llvm.lifetime.start.p0(i64 8, ptr %8) #7
  %9 = load double, ptr %2, align 8, !tbaa !27
  %10 = call nsz double @llvm.pow.f64(double %9, double 0x3F89F9B5860989B1)
  store double %10, ptr %8, align 8, !tbaa !27
  %11 = load double, ptr %8, align 8, !tbaa !27
  %12 = fcmp nsz ogt double 0x3FEAC00000000000, %11
  br i1 %12, label %13, label %14

13:                                               ; preds = %1
  br label %22

14:                                               ; preds = %1
  %15 = load double, ptr %8, align 8, !tbaa !27
  %16 = fsub nsz double %15, 0x3FEAC00000000000
  %17 = load double, ptr %8, align 8, !tbaa !27
  %18 = call nsz double @llvm.fmuladd.f64(double -1.868750e+01, double %17, double 0x4032DA0000000000)
  %19 = fdiv nsz double %16, %18
  %20 = call nsz double @llvm.pow.f64(double %19, double 0x40191C0D56E7162B)
  %21 = fmul nsz double 1.000000e+04, %20
  br label %22

22:                                               ; preds = %14, %13
  %23 = phi nsz double [ 0.000000e+00, %13 ], [ %21, %14 ]
  call void @llvm.lifetime.end.p0(i64 8, ptr %8) #7
  call void @llvm.lifetime.end.p0(i64 8, ptr %7) #7
  call void @llvm.lifetime.end.p0(i64 8, ptr %6) #7
  call void @llvm.lifetime.end.p0(i64 8, ptr %5) #7
  call void @llvm.lifetime.end.p0(i64 8, ptr %4) #7
  call void @llvm.lifetime.end.p0(i64 8, ptr %3) #7
  ret double %23
}

; Function Attrs: nounwind uwtable
define internal void @eotf_smpte_st2084(double noundef %0, double noundef %1, ptr noundef %2) #0 {
  %4 = alloca double, align 8
  %5 = alloca double, align 8
  %6 = alloca ptr, align 8
  %7 = alloca i32, align 4
  store double %0, ptr %4, align 8, !tbaa !27
  store double %1, ptr %5, align 8, !tbaa !27
  store ptr %2, ptr %6, align 8, !tbaa !30
  call void @llvm.lifetime.start.p0(i64 4, ptr %7) #7
  store i32 0, ptr %7, align 4, !tbaa !4
  br label %8

8:                                                ; preds = %23, %3
  %9 = load i32, ptr %7, align 4, !tbaa !4
  %10 = icmp slt i32 %9, 3
  br i1 %10, label %12, label %11

11:                                               ; preds = %8
  call void @llvm.lifetime.end.p0(i64 4, ptr %7) #7
  br label %26

12:                                               ; preds = %8
  %13 = load ptr, ptr %6, align 8, !tbaa !30
  %14 = load i32, ptr %7, align 4, !tbaa !4
  %15 = sext i32 %14 to i64
  %16 = getelementptr inbounds double, ptr %13, i64 %15
  %17 = load double, ptr %16, align 8, !tbaa !27
  %18 = call nsz double @trc_smpte_st2084_inv(double noundef %17)
  %19 = load ptr, ptr %6, align 8, !tbaa !30
  %20 = load i32, ptr %7, align 4, !tbaa !4
  %21 = sext i32 %20 to i64
  %22 = getelementptr inbounds double, ptr %19, i64 %21
  store double %18, ptr %22, align 8, !tbaa !27
  br label %23

23:                                               ; preds = %12
  %24 = load i32, ptr %7, align 4, !tbaa !4
  %25 = add nsw i32 %24, 1
  store i32 %25, ptr %7, align 4, !tbaa !4
  br label %8, !llvm.loop !34

26:                                               ; preds = %11
  ret void
}