; Function Attrs: nofree norecurse nosync nounwind memory(argmem: readwrite) uwtable
define internal void @eotf_smpte_st2084(double %0, double %1, ptr noundef captures(none) %2) #5 {
  br label %5

4:                                                ; preds = %trc_smpte_st2084_inv.exit
  ret void

5:                                                ; preds = %3, %trc_smpte_st2084_inv.exit
  %indvars.iv = phi i64 [ 0, %3 ], [ %indvars.iv.next, %trc_smpte_st2084_inv.exit ]
  %6 = getelementptr inbounds nuw double, ptr %2, i64 %indvars.iv
  %7 = load double, ptr %6, align 8, !tbaa !16
  %8 = tail call nsz double @llvm.pow.f64(double %7, double 0x3F89F9B5860989B1)
  %9 = fcmp nsz olt double %8, 0x3FEAC00000000000
  br i1 %9, label %trc_smpte_st2084_inv.exit, label %10

10:                                               ; preds = %5
  %11 = fadd nsz double %8, 0xBFEAC00000000000
  %12 = tail call nsz double @llvm.fmuladd.f64(double %8, double -1.868750e+01, double 0x4032DA0000000000)
  %13 = fdiv nsz double %11, %12
  %14 = tail call nsz double @llvm.pow.f64(double %13, double 0x40191C0D56E7162B)
  %15 = fmul nsz double %14, 1.000000e+04
  br label %trc_smpte_st2084_inv.exit

trc_smpte_st2084_inv.exit:                        ; preds = %5, %10
  %16 = phi nsz double [ %15, %10 ], [ 0.000000e+00, %5 ]
  store double %16, ptr %6, align 8, !tbaa !16
  %indvars.iv.next = add nuw nsw i64 %indvars.iv, 1
  %exitcond.not = icmp eq i64 %indvars.iv.next, 3
  br i1 %exitcond.not, label %4, label %5, !llvm.loop !25
}